target datalayout = "e-m:e-p270:32:32-p271:32:32-p272:64:64-i64:64-i128:128-f80:128-n8:16:32:64-S128"
target triple = "x86_64-pc-linux-gnu"

%struct.XLogReaderRoutine = type { ptr, ptr, ptr }
%struct.XLogReaderState = type { %struct.XLogReaderRoutine, i64, ptr, i64, i64, i64, i64, i64, i64, i64, i64, ptr, ptr, i64, i8, ptr, ptr, ptr, ptr, ptr, i32, %struct.WALSegmentContext, %struct.WALOpenSegment, i32, i64, i32, i64, i32, i64, i32, ptr, i32, ptr, i8, i8 }
%struct.WALSegmentContext = type { [1024 x i8], i32 }
%struct.WALOpenSegment = type { i32, i64, i32 }
%struct.DecodedXLogRecord = type { i64, i8, ptr, i64, i64, %struct.XLogRecord, i16, i32, ptr, i32, i32, [0 x %struct.DecodedBkpBlock] }
%struct.XLogRecord = type { i32, i32, i64, i8, i8, i32 }
%struct.DecodedBkpBlock = type { i8, %struct.RelFileLocator, i32, i32, i32, i8, i8, i8, ptr, i16, i16, i16, i8, i8, ptr, i16, i16 }
%struct.RelFileLocator = type { i32, i32, i32 }

@.str.2 = private unnamed_addr constant [11 x i8] c"twophase.c\00", align 1
@wal_segment_size = external global i32, align 4
@.str.45 = private unnamed_addr constant [14 x i8] c"out of memory\00", align 1
@.str.46 = private unnamed_addr constant [49 x i8] c"Failed while allocating a WAL reading processor.\00", align 1
@__func__.XlogReadTwoPhaseData = private unnamed_addr constant [21 x i8] c"XlogReadTwoPhaseData\00", align 1
@.str.47 = private unnamed_addr constant [53 x i8] c"could not read two-phase state from WAL at %X/%X: %s\00", align 1
@.str.48 = private unnamed_addr constant [49 x i8] c"could not read two-phase state from WAL at %X/%X\00", align 1
@.str.49 = private unnamed_addr constant [61 x i8] c"expected two-phase state data is not present in WAL at %X/%X\00", align 1

; Function Attrs: nounwind uwtable
define internal void @XlogReadTwoPhaseData(i64 noundef %0, ptr noundef %1, ptr noundef %2) #0 {
  %4 = alloca i64, align 8
  %5 = alloca ptr, align 8
  %6 = alloca ptr, align 8
  %7 = alloca ptr, align 8
  %8 = alloca ptr, align 8
  %9 = alloca ptr, align 8
  %10 = alloca %struct.XLogReaderRoutine, align 8
  %11 = alloca i32, align 4
  %12 = alloca i32, align 4
  %13 = alloca i32, align 4
  store i64 %0, ptr %4, align 8
  store ptr %1, ptr %5, align 8
  store ptr %2, ptr %6, align 8
  call void @llvm.lifetime.start.p0(i64 8, ptr %7) #12
  call void @llvm.lifetime.start.p0(i64 8, ptr %8) #12
  call void @llvm.lifetime.start.p0(i64 8, ptr %9) #12
  %14 = load i32, ptr @wal_segment_size, align 4
  %15 = getelementptr inbounds nuw %struct.XLogReaderRoutine, ptr %10, i32 0, i32 0
  store ptr @read_local_xlog_page, ptr %15, align 8
  %16 = getelementptr inbounds nuw %struct.XLogReaderRoutine, ptr %10, i32 0, i32 1
  store ptr @wal_segment_open, ptr %16, align 8
  %17 = getelementptr inbounds nuw %struct.XLogReaderRoutine, ptr %10, i32 0, i32 2
  store ptr @wal_segment_close, ptr %17, align 8
  %18 = call ptr @XLogReaderAllocate(i32 noundef %14, ptr noundef null, ptr noundef %10, ptr noundef null)
  store ptr %18, ptr %8, align 8
  %19 = load ptr, ptr %8, align 8
  %20 = icmp ne ptr %19, null
  br i1 %20, label %34, label %21

21:                                               ; preds = %3
  br label %22

22:                                               ; preds = %21
  br i1 true, label %23, label %25

23:                                               ; preds = %22
  %24 = call zeroext i1 @errstart_cold(i32 noundef 21, ptr noundef null) #13
  br i1 %24, label %27, label %31

25:                                               ; preds = %22
  %26 = call zeroext i1 @errstart(i32 noundef 21, ptr noundef null)
  br i1 %26, label %27, label %31

27:                                               ; preds = %25, %23
  %28 = call i32 @errcode(i32 noundef 8389)
  %29 = call i32 (ptr, ...) @errmsg(ptr noundef @.str.45)
  %30 = call i32 (ptr, ...) @errdetail(ptr noundef @.str.46)
  call void @errfinish(ptr noundef @.str.2, i32 noundef 1419, ptr noundef @__func__.XlogReadTwoPhaseData)
  br label %31

31:                                               ; preds = %27, %25, %23
  unreachable

32:                                               ; No predecessors!
  br label %33

33:                                               ; preds = %32
  br label %34

34:                                               ; preds = %33, %3
  %35 = load ptr, ptr %8, align 8
  %36 = load i64, ptr %4, align 8
  call void @XLogBeginRead(ptr noundef %35, i64 noundef %36)
  %37 = load ptr, ptr %8, align 8
  %38 = call ptr @XLogReadRecord(ptr noundef %37, ptr noundef %9)
  store ptr %38, ptr %7, align 8
  %39 = load ptr, ptr %7, align 8
  %40 = icmp eq ptr %39, null
  br i1 %40, label %41, label %86

41:                                               ; preds = %34
  %42 = load ptr, ptr %9, align 8
  %43 = icmp ne ptr %42, null
  br i1 %43, label %44, label %65

44:                                               ; preds = %41
  br label %45

45:                                               ; preds = %44
  br i1 true, label %46, label %48

46:                                               ; preds = %45
  %47 = call zeroext i1 @errstart_cold(i32 noundef 21, ptr noundef null) #13
  br i1 %47, label %50, label %62

48:                                               ; preds = %45
  %49 = call zeroext i1 @errstart(i32 noundef 21, ptr noundef null)
  br i1 %49, label %50, label %62

50:                                               ; preds = %48, %46
  %51 = call i32 @errcode_for_file_access()
  br label %52

52:                                               ; preds = %50
  br label %53

53:                                               ; preds = %52
  br label %54

54:                                               ; preds = %53
  store i32 1, ptr %11, align 4
  %55 = load i64, ptr %4, align 8
  %56 = lshr i64 %55, 32
  %57 = trunc i64 %56 to i32
  %58 = load i64, ptr %4, align 8
  %59 = trunc i64 %58 to i32
  %60 = load ptr, ptr %9, align 8
  %61 = call i32 (ptr, ...) @errmsg(ptr noundef @.str.47, i32 noundef %57, i32 noundef %59, ptr noundef %60)
  call void @errfinish(ptr noundef @.str.2, i32 noundef 1430, ptr noundef @__func__.XlogReadTwoPhaseData)
  br label %62

62:                                               ; preds = %54, %48, %46
  unreachable

63:                                               ; No predecessors!
  br label %64

64:                                               ; preds = %63
  br label %85

65:                                               ; preds = %41
  br label %66

66:                                               ; preds = %65
  br i1 true, label %67, label %69

67:                                               ; preds = %66
  %68 = call zeroext i1 @errstart_cold(i32 noundef 21, ptr noundef null) #13
  br i1 %68, label %71, label %82

69:                                               ; preds = %66
  %70 = call zeroext i1 @errstart(i32 noundef 21, ptr noundef null)
  br i1 %70, label %71, label %82

71:                                               ; preds = %69, %67
  %72 = call i32 @errcode_for_file_access()
  br label %73

73:                                               ; preds = %71
  br label %74

74:                                               ; preds = %73
  br label %75

75:                                               ; preds = %74
  store i32 1, ptr %12, align 4
  %76 = load i64, ptr %4, align 8
  %77 = lshr i64 %76, 32
  %78 = trunc i64 %77 to i32
  %79 = load i64, ptr %4, align 8
  %80 = trunc i64 %79 to i32
  %81 = call i32 (ptr, ...) @errmsg(ptr noundef @.str.48, i32 noundef %78, i32 noundef %80)
  call void @errfinish(ptr noundef @.str.2, i32 noundef 1435, ptr noundef @__func__.XlogReadTwoPhaseData)
  br label %82

82:                                               ; preds = %75, %69, %67
  unreachable

83:                                               ; No predecessors!
  br label %84

84:                                               ; preds = %83
  br label %85

85:                                               ; preds = %84, %64
  br label %86

86:                                               ; preds = %85, %34
  %87 = load ptr, ptr %8, align 8
  %88 = getelementptr inbounds nuw %struct.XLogReaderState, ptr %87, i32 0, i32 11
  %89 = load ptr, ptr %88, align 8
  %90 = getelementptr inbounds nuw %struct.DecodedXLogRecord, ptr %89, i32 0, i32 5
  %91 = getelementptr inbounds nuw %struct.XLogRecord, ptr %90, i32 0, i32 4
  %92 = load i8, ptr %91, align 1
  %93 = zext i8 %92 to i32
  %94 = icmp ne i32 %93, 1
  br i1 %94, label %105, label %95

95:                                               ; preds = %86
  %96 = load ptr, ptr %8, align 8
  %97 = getelementptr inbounds nuw %struct.XLogReaderState, ptr %96, i32 0, i32 11
  %98 = load ptr, ptr %97, align 8
  %99 = getelementptr inbounds nuw %struct.DecodedXLogRecord, ptr %98, i32 0, i32 5
  %100 = getelementptr inbounds nuw %struct.XLogRecord, ptr %99, i32 0, i32 3
  %101 = load i8, ptr %100, align 8
  %102 = zext i8 %101 to i32
  %103 = and i32 %102, 112
  %104 = icmp ne i32 %103, 16
  br i1 %104, label %105, label %125

105:                                              ; preds = %95, %86
  br label %106

106:                                              ; preds = %105
  br i1 true, label %107, label %109

107:                                              ; preds = %106
  %108 = call zeroext i1 @errstart_cold(i32 noundef 21, ptr noundef null) #13
  br i1 %108, label %111, label %122

109:                                              ; preds = %106
  %110 = call zeroext i1 @errstart(i32 noundef 21, ptr noundef null)
  br i1 %110, label %111, label %122

111:                                              ; preds = %109, %107
  %112 = call i32 @errcode_for_file_access()
  br label %113

113:                                              ; preds = %111
  br label %114

114:                                              ; preds = %113
  br label %115

115:                                              ; preds = %114
  store i32 1, ptr %13, align 4
  %116 = load i64, ptr %4, align 8
  %117 = lshr i64 %116, 32
  %118 = trunc i64 %117 to i32
  %119 = load i64, ptr %4, align 8
  %120 = trunc i64 %119 to i32
  %121 = call i32 (ptr, ...) @errmsg(ptr noundef @.str.49, i32 noundef %118, i32 noundef %120)
  call void @errfinish(ptr noundef @.str.2, i32 noundef 1443, ptr noundef @__func__.XlogReadTwoPhaseData)
  br label %122

122:                                              ; preds = %115, %109, %107
  unreachable

123:                                              ; No predecessors!
  br label %124

124:                                              ; preds = %123
  br label %125

125:                                              ; preds = %124, %95
  %126 = load ptr, ptr %6, align 8
  %127 = icmp ne ptr %126, null
  br i1 %127, label %128, label %135

128:                                              ; preds = %125
  %129 = load ptr, ptr %8, align 8
  %130 = getelementptr inbounds nuw %struct.XLogReaderState, ptr %129, i32 0, i32 11
  %131 = load ptr, ptr %130, align 8
  %132 = getelementptr inbounds nuw %struct.DecodedXLogRecord, ptr %131, i32 0, i32 9
  %133 = load i32, ptr %132, align 8
  %134 = load ptr, ptr %6, align 8
  store i32 %133, ptr %134, align 4
  br label %135

135:                                              ; preds = %128, %125
  %136 = load ptr, ptr %8, align 8
  %137 = getelementptr inbounds nuw %struct.XLogReaderState, ptr %136, i32 0, i32 11
  %138 = load ptr, ptr %137, align 8
  %139 = getelementptr inbounds nuw %struct.DecodedXLogRecord, ptr %138, i32 0, i32 9
  %140 = load i32, ptr %139, align 8
  %141 = zext i32 %140 to i64
  %142 = mul i64 1, %141
  %143 = call ptr @palloc(i64 noundef %142)
  %144 = load ptr, ptr %5, align 8
  store ptr %143, ptr %144, align 8
  %145 = load ptr, ptr %5, align 8
  %146 = load ptr, ptr %145, align 8
  %147 = load ptr, ptr %8, align 8
  %148 = getelementptr inbounds nuw %struct.XLogReaderState, ptr %147, i32 0, i32 11
  %149 = load ptr, ptr %148, align 8
  %150 = getelementptr inbounds nuw %struct.DecodedXLogRecord, ptr %149, i32 0, i32 8
  %151 = load ptr, ptr %150, align 8
  %152 = load ptr, ptr %8, align 8
  %153 = getelementptr inbounds nuw %struct.XLogReaderState, ptr %152, i32 0, i32 11
  %154 = load ptr, ptr %153, align 8
  %155 = getelementptr inbounds nuw %struct.DecodedXLogRecord, ptr %154, i32 0, i32 9
  %156 = load i32, ptr %155, align 8
  %157 = zext i32 %156 to i64
  %158 = mul i64 1, %157
  call void @llvm.memcpy.p0.p0.i64(ptr align 1 %146, ptr align 1 %151, i64 %158, i1 false)
  %159 = load ptr, ptr %8, align 8
  call void @XLogReaderFree(ptr noundef %159)
  call void @llvm.lifetime.end.p0(i64 8, ptr %9) #12
  call void @llvm.lifetime.end.p0(i64 8, ptr %8) #12
  call void @llvm.lifetime.end.p0(i64 8, ptr %7) #12
  ret void
}