; Function Attrs: nounwind uwtable
define internal fastcc void @XlogReadTwoPhaseData(i64 noundef %0, ptr noundef nonnull writeonly captures(none) %1, ptr noundef writeonly captures(address_is_null) %2) unnamed_addr #0 {
  %4 = alloca ptr, align 8
  %5 = alloca %struct.XLogReaderRoutine, align 8
  call void @llvm.lifetime.start.p0(i64 8, ptr nonnull %4) #14
  %6 = load i32, ptr @wal_segment_size, align 4
  store ptr @read_local_xlog_page, ptr %5, align 8
  %7 = getelementptr inbounds nuw i8, ptr %5, i64 8
  store ptr @wal_segment_open, ptr %7, align 8
  %8 = getelementptr inbounds nuw i8, ptr %5, i64 16
  store ptr @wal_segment_close, ptr %8, align 8
  %9 = call ptr @XLogReaderAllocate(i32 noundef %6, ptr noundef null, ptr noundef nonnull %5, ptr noundef null) #14
  %.not = icmp eq ptr %9, null
  br i1 %.not, label %10, label %15

10:                                               ; preds = %3
  %11 = call zeroext i1 @errstart_cold(i32 noundef 21, ptr noundef null) #15
  call void @llvm.assume(i1 %11)
  %12 = call i32 @errcode(i32 noundef 8389) #14
  %13 = call i32 (ptr, ...) @errmsg(ptr noundef nonnull @.str.45) #14
  %14 = call i32 (ptr, ...) @errdetail(ptr noundef nonnull @.str.46) #14
  call void @errfinish(ptr noundef nonnull @.str.2, i32 noundef 1419, ptr noundef nonnull @__func__.XlogReadTwoPhaseData) #14
  unreachable

15:                                               ; preds = %3
  call void @XLogBeginRead(ptr noundef nonnull %9, i64 noundef %0) #14
  %16 = call ptr @XLogReadRecord(ptr noundef nonnull %9, ptr noundef nonnull %4) #14
  %17 = icmp eq ptr %16, null
  br i1 %17, label %18, label %30

18:                                               ; preds = %15
  %19 = load ptr, ptr %4, align 8
  %.not25 = icmp eq ptr %19, null
  %20 = call zeroext i1 @errstart_cold(i32 noundef 21, ptr noundef null) #15
  call void @llvm.assume(i1 %20)
  %21 = call i32 @errcode_for_file_access() #14
  %22 = lshr i64 %0, 32
  %23 = trunc nuw i64 %22 to i32
  %24 = trunc i64 %0 to i32
  br i1 %.not25, label %28, label %25

25:                                               ; preds = %18
  %26 = load ptr, ptr %4, align 8
  %27 = call i32 (ptr, ...) @errmsg(ptr noundef nonnull @.str.47, i32 noundef %23, i32 noundef %24, ptr noundef %26) #14
  call void @errfinish(ptr noundef nonnull @.str.2, i32 noundef 1430, ptr noundef nonnull @__func__.XlogReadTwoPhaseData) #14
  unreachable

28:                                               ; preds = %18
  %29 = call i32 (ptr, ...) @errmsg(ptr noundef nonnull @.str.48, i32 noundef %23, i32 noundef %24) #14
  call void @errfinish(ptr noundef nonnull @.str.2, i32 noundef 1435, ptr noundef nonnull @__func__.XlogReadTwoPhaseData) #14
  unreachable

30:                                               ; preds = %15
  %31 = getelementptr inbounds nuw i8, ptr %9, i64 104
  %32 = load ptr, ptr %31, align 8
  %33 = getelementptr inbounds nuw i8, ptr %32, i64 57
  %34 = load i8, ptr %33, align 1
  %.not22 = icmp eq i8 %34, 1
  br i1 %.not22, label %35, label %39

35:                                               ; preds = %30
  %36 = getelementptr inbounds nuw i8, ptr %32, i64 56
  %37 = load i8, ptr %36, align 8
  %38 = and i8 %37, 112
  %.not23 = icmp eq i8 %38, 16
  br i1 %.not23, label %46, label %39

39:                                               ; preds = %35, %30
  %40 = call zeroext i1 @errstart_cold(i32 noundef 21, ptr noundef null) #15
  call void @llvm.assume(i1 %40)
  %41 = call i32 @errcode_for_file_access() #14
  %42 = lshr i64 %0, 32
  %43 = trunc nuw i64 %42 to i32
  %44 = trunc i64 %0 to i32
  %45 = call i32 (ptr, ...) @errmsg(ptr noundef nonnull @.str.49, i32 noundef %43, i32 noundef %44) #14
  call void @errfinish(ptr noundef nonnull @.str.2, i32 noundef 1443, ptr noundef nonnull @__func__.XlogReadTwoPhaseData) #14
  unreachable

46:                                               ; preds = %35
  %.not24 = icmp eq ptr %2, null
  br i1 %.not24, label %50, label %47

47:                                               ; preds = %46
  %48 = getelementptr inbounds nuw i8, ptr %32, i64 80
  %49 = load i32, ptr %48, align 8
  store i32 %49, ptr %2, align 4
  %.pre = load ptr, ptr %31, align 8
  br label %50

50:                                               ; preds = %47, %46
  %51 = phi ptr [ %.pre, %47 ], [ %32, %46 ]
  %52 = getelementptr inbounds nuw i8, ptr %51, i64 80
  %53 = load i32, ptr %52, align 8
  %54 = zext i32 %53 to i64
  %55 = call ptr @palloc(i64 noundef %54) #14
  store ptr %55, ptr %1, align 8
  %56 = load ptr, ptr %31, align 8
  %57 = getelementptr inbounds nuw i8, ptr %56, i64 72
  %58 = load ptr, ptr %57, align 8
  %59 = getelementptr inbounds nuw i8, ptr %56, i64 80
  %60 = load i32, ptr %59, align 8
  %61 = zext i32 %60 to i64
  call void @llvm.memcpy.p0.p0.i64(ptr align 1 %55, ptr align 1 %58, i64 %61, i1 false)
  call void @XLogReaderFree(ptr noundef nonnull %9) #14
  call void @llvm.lifetime.end.p0(i64 8, ptr nonnull %4) #14
  ret void
}